
out:     file format elf32-littleriscv


Disassembly of section .text:

00010074 <main>:
   10074:	ff010113          	addi	sp,sp,-16
   10078:	00112623          	sw	ra,12(sp)
   1007c:	00812423          	sw	s0,8(sp)
   10080:	01010413          	addi	s0,sp,16
   10084:	8201a783          	lw	a5,-2016(gp) # 11430 <dist3>
   10088:	00b7a793          	slti	a5,a5,11
   1008c:	0017c793          	xori	a5,a5,1
   10090:	0ff7f793          	andi	a5,a5,255
   10094:	00078713          	mv	a4,a5
   10098:	80e1a423          	sw	a4,-2040(gp) # 11418 <Sensor3>
   1009c:	8241a783          	lw	a5,-2012(gp) # 11434 <dist2>
   100a0:	00b7a793          	slti	a5,a5,11
   100a4:	0017c793          	xori	a5,a5,1
   100a8:	0ff7f793          	andi	a5,a5,255
   100ac:	00078713          	mv	a4,a5
   100b0:	000117b7          	lui	a5,0x11
   100b4:	40e7aa23          	sw	a4,1044(a5) # 11414 <Sensor2>
   100b8:	8281a783          	lw	a5,-2008(gp) # 11438 <dist1>
   100bc:	00b7a793          	slti	a5,a5,11
   100c0:	0017c793          	xori	a5,a5,1
   100c4:	0ff7f793          	andi	a5,a5,255
   100c8:	00078713          	mv	a4,a5
   100cc:	000117b7          	lui	a5,0x11
   100d0:	40e7a823          	sw	a4,1040(a5) # 11410 <__DATA_BEGIN__>
   100d4:	8081a703          	lw	a4,-2040(gp) # 11418 <Sensor3>
   100d8:	00100793          	li	a5,1
   100dc:	00f71663          	bne	a4,a5,100e8 <main+0x74>
   100e0:	218000ef          	jal	ra,102f8 <turnRight>
   100e4:	fa1ff06f          	j	10084 <main+0x10>
   100e8:	000117b7          	lui	a5,0x11
   100ec:	4147a703          	lw	a4,1044(a5) # 11414 <Sensor2>
   100f0:	00100793          	li	a5,1
   100f4:	00f71663          	bne	a4,a5,10100 <main+0x8c>
   100f8:	0b0000ef          	jal	ra,101a8 <moveForward>
   100fc:	f89ff06f          	j	10084 <main+0x10>
   10100:	000117b7          	lui	a5,0x11
   10104:	4107a703          	lw	a4,1040(a5) # 11410 <__DATA_BEGIN__>
   10108:	00100793          	li	a5,1
   1010c:	00f71663          	bne	a4,a5,10118 <main+0xa4>
   10110:	178000ef          	jal	ra,10288 <turnLeft>
   10114:	f71ff06f          	j	10084 <main+0x10>
   10118:	100000ef          	jal	ra,10218 <goBack>
   1011c:	f69ff06f          	j	10084 <main+0x10>

00010120 <readSensors>:
   10120:	fd010113          	addi	sp,sp,-48
   10124:	02812623          	sw	s0,44(sp)
   10128:	03010413          	addi	s0,sp,48
   1012c:	fca42e23          	sw	a0,-36(s0)
   10130:	fcb42c23          	sw	a1,-40(s0)
   10134:	fcc42a23          	sw	a2,-44(s0)
   10138:	100007b7          	lui	a5,0x10000
   1013c:	fff78793          	addi	a5,a5,-1 # fffffff <__global_pointer$+0xffee3ef>
   10140:	fef42623          	sw	a5,-20(s0)
   10144:	fec42783          	lw	a5,-20(s0)
   10148:	00078e13          	mv	t3,a5
   1014c:	01cf72b3          	and	t0,t5,t3
   10150:	0ff00e93          	li	t4,255
   10154:	01d2f6b3          	and	a3,t0,t4
   10158:	0082d313          	srli	t1,t0,0x8
   1015c:	01d37733          	and	a4,t1,t4
   10160:	0102d393          	srli	t2,t0,0x10
   10164:	01d3f7b3          	and	a5,t2,t4
   10168:	fed42423          	sw	a3,-24(s0)
   1016c:	fee42223          	sw	a4,-28(s0)
   10170:	fef42023          	sw	a5,-32(s0)
   10174:	fdc42783          	lw	a5,-36(s0)
   10178:	fe842703          	lw	a4,-24(s0)
   1017c:	00e7a023          	sw	a4,0(a5)
   10180:	fd842783          	lw	a5,-40(s0)
   10184:	fe442703          	lw	a4,-28(s0)
   10188:	00e7a023          	sw	a4,0(a5)
   1018c:	fd442783          	lw	a5,-44(s0)
   10190:	fe042703          	lw	a4,-32(s0)
   10194:	00e7a023          	sw	a4,0(a5)
   10198:	00000013          	nop
   1019c:	02c12403          	lw	s0,44(sp)
   101a0:	03010113          	addi	sp,sp,48
   101a4:	00008067          	ret

000101a8 <moveForward>:
   101a8:	ff010113          	addi	sp,sp,-16
   101ac:	00112623          	sw	ra,12(sp)
   101b0:	00812423          	sw	s0,8(sp)
   101b4:	01010413          	addi	s0,sp,16
   101b8:	100002b7          	lui	t0,0x10000
   101bc:	fff28293          	addi	t0,t0,-1 # fffffff <__global_pointer$+0xffee3ef>
   101c0:	005f7f33          	and	t5,t5,t0
   101c4:	05000337          	lui	t1,0x5000
   101c8:	006f6f33          	or	t5,t5,t1
   101cc:	01000e37          	lui	t3,0x1000
   101d0:	01cf75b3          	and	a1,t5,t3
   101d4:	02000e37          	lui	t3,0x2000
   101d8:	01cf7633          	and	a2,t5,t3
   101dc:	04000e37          	lui	t3,0x4000
   101e0:	01cf76b3          	and	a3,t5,t3
   101e4:	08000e37          	lui	t3,0x8000
   101e8:	01cf7733          	and	a4,t5,t3
   101ec:	80b1a623          	sw	a1,-2036(gp) # 1141c <Motor1A>
   101f0:	80c1a823          	sw	a2,-2032(gp) # 11420 <Motor1B>
   101f4:	80d1aa23          	sw	a3,-2028(gp) # 11424 <Motor2A>
   101f8:	80e1ac23          	sw	a4,-2024(gp) # 11428 <Motor2B>
   101fc:	2bc00513          	li	a0,700
   10200:	1d0000ef          	jal	ra,103d0 <delay>
   10204:	00000013          	nop
   10208:	00c12083          	lw	ra,12(sp)
   1020c:	00812403          	lw	s0,8(sp)
   10210:	01010113          	addi	sp,sp,16
   10214:	00008067          	ret

00010218 <goBack>:
   10218:	ff010113          	addi	sp,sp,-16
   1021c:	00112623          	sw	ra,12(sp)
   10220:	00812423          	sw	s0,8(sp)
   10224:	01010413          	addi	s0,sp,16
   10228:	100002b7          	lui	t0,0x10000
   1022c:	fff28293          	addi	t0,t0,-1 # fffffff <__global_pointer$+0xffee3ef>
   10230:	005f7f33          	and	t5,t5,t0
   10234:	0a000337          	lui	t1,0xa000
   10238:	006f6f33          	or	t5,t5,t1
   1023c:	01000e37          	lui	t3,0x1000
   10240:	01cf75b3          	and	a1,t5,t3
   10244:	02000e37          	lui	t3,0x2000
   10248:	01cf7633          	and	a2,t5,t3
   1024c:	04000e37          	lui	t3,0x4000
   10250:	01cf76b3          	and	a3,t5,t3
   10254:	08000e37          	lui	t3,0x8000
   10258:	01cf7733          	and	a4,t5,t3
   1025c:	80b1a623          	sw	a1,-2036(gp) # 1141c <Motor1A>
   10260:	80c1a823          	sw	a2,-2032(gp) # 11420 <Motor1B>
   10264:	80d1aa23          	sw	a3,-2028(gp) # 11424 <Motor2A>
   10268:	80e1ac23          	sw	a4,-2024(gp) # 11428 <Motor2B>
   1026c:	57800513          	li	a0,1400
   10270:	160000ef          	jal	ra,103d0 <delay>
   10274:	00000013          	nop
   10278:	00c12083          	lw	ra,12(sp)
   1027c:	00812403          	lw	s0,8(sp)
   10280:	01010113          	addi	sp,sp,16
   10284:	00008067          	ret

00010288 <turnLeft>:
   10288:	ff010113          	addi	sp,sp,-16
   1028c:	00112623          	sw	ra,12(sp)
   10290:	00812423          	sw	s0,8(sp)
   10294:	01010413          	addi	s0,sp,16
   10298:	100002b7          	lui	t0,0x10000
   1029c:	fff28293          	addi	t0,t0,-1 # fffffff <__global_pointer$+0xffee3ef>
   102a0:	005f7f33          	and	t5,t5,t0
   102a4:	06000337          	lui	t1,0x6000
   102a8:	006f6f33          	or	t5,t5,t1
   102ac:	01000e37          	lui	t3,0x1000
   102b0:	01cf75b3          	and	a1,t5,t3
   102b4:	02000e37          	lui	t3,0x2000
   102b8:	01cf7633          	and	a2,t5,t3
   102bc:	04000e37          	lui	t3,0x4000
   102c0:	01cf76b3          	and	a3,t5,t3
   102c4:	08000e37          	lui	t3,0x8000
   102c8:	01cf7733          	and	a4,t5,t3
   102cc:	80b1a623          	sw	a1,-2036(gp) # 1141c <Motor1A>
   102d0:	80c1a823          	sw	a2,-2032(gp) # 11420 <Motor1B>
   102d4:	80d1aa23          	sw	a3,-2028(gp) # 11424 <Motor2A>
   102d8:	80e1ac23          	sw	a4,-2024(gp) # 11428 <Motor2B>
   102dc:	2bc00513          	li	a0,700
   102e0:	0f0000ef          	jal	ra,103d0 <delay>
   102e4:	00000013          	nop
   102e8:	00c12083          	lw	ra,12(sp)
   102ec:	00812403          	lw	s0,8(sp)
   102f0:	01010113          	addi	sp,sp,16
   102f4:	00008067          	ret

000102f8 <turnRight>:
   102f8:	ff010113          	addi	sp,sp,-16
   102fc:	00112623          	sw	ra,12(sp)
   10300:	00812423          	sw	s0,8(sp)
   10304:	01010413          	addi	s0,sp,16
   10308:	100002b7          	lui	t0,0x10000
   1030c:	fff28293          	addi	t0,t0,-1 # fffffff <__global_pointer$+0xffee3ef>
   10310:	005f7f33          	and	t5,t5,t0
   10314:	09000337          	lui	t1,0x9000
   10318:	006f6f33          	or	t5,t5,t1
   1031c:	01000e37          	lui	t3,0x1000
   10320:	01cf75b3          	and	a1,t5,t3
   10324:	02000e37          	lui	t3,0x2000
   10328:	01cf7633          	and	a2,t5,t3
   1032c:	04000e37          	lui	t3,0x4000
   10330:	01cf76b3          	and	a3,t5,t3
   10334:	08000e37          	lui	t3,0x8000
   10338:	01cf7733          	and	a4,t5,t3
   1033c:	80b1a623          	sw	a1,-2036(gp) # 1141c <Motor1A>
   10340:	80c1a823          	sw	a2,-2032(gp) # 11420 <Motor1B>
   10344:	80d1aa23          	sw	a3,-2028(gp) # 11424 <Motor2A>
   10348:	80e1ac23          	sw	a4,-2024(gp) # 11428 <Motor2B>
   1034c:	57800513          	li	a0,1400
   10350:	080000ef          	jal	ra,103d0 <delay>
   10354:	00000013          	nop
   10358:	00c12083          	lw	ra,12(sp)
   1035c:	00812403          	lw	s0,8(sp)
   10360:	01010113          	addi	sp,sp,16
   10364:	00008067          	ret

00010368 <stopMovement>:
   10368:	ff010113          	addi	sp,sp,-16
   1036c:	00112623          	sw	ra,12(sp)
   10370:	00812423          	sw	s0,8(sp)
   10374:	01010413          	addi	s0,sp,16
   10378:	100002b7          	lui	t0,0x10000
   1037c:	fff28293          	addi	t0,t0,-1 # fffffff <__global_pointer$+0xffee3ef>
   10380:	005f7f33          	and	t5,t5,t0
   10384:	01000e37          	lui	t3,0x1000
   10388:	01cf75b3          	and	a1,t5,t3
   1038c:	02000e37          	lui	t3,0x2000
   10390:	01cf7633          	and	a2,t5,t3
   10394:	04000e37          	lui	t3,0x4000
   10398:	01cf76b3          	and	a3,t5,t3
   1039c:	08000e37          	lui	t3,0x8000
   103a0:	01cf7733          	and	a4,t5,t3
   103a4:	80b1a623          	sw	a1,-2036(gp) # 1141c <Motor1A>
   103a8:	80c1a823          	sw	a2,-2032(gp) # 11420 <Motor1B>
   103ac:	80d1aa23          	sw	a3,-2028(gp) # 11424 <Motor2A>
   103b0:	80e1ac23          	sw	a4,-2024(gp) # 11428 <Motor2B>
   103b4:	57800513          	li	a0,1400
   103b8:	018000ef          	jal	ra,103d0 <delay>
   103bc:	00000013          	nop
   103c0:	00c12083          	lw	ra,12(sp)
   103c4:	00812403          	lw	s0,8(sp)
   103c8:	01010113          	addi	sp,sp,16
   103cc:	00008067          	ret

000103d0 <delay>:
   103d0:	fd010113          	addi	sp,sp,-48
   103d4:	02812623          	sw	s0,44(sp)
   103d8:	03010413          	addi	s0,sp,48
   103dc:	fca42e23          	sw	a0,-36(s0)
   103e0:	fe042623          	sw	zero,-20(s0)
   103e4:	0100006f          	j	103f4 <delay+0x24>
   103e8:	fec42783          	lw	a5,-20(s0)
   103ec:	00178793          	addi	a5,a5,1
   103f0:	fef42623          	sw	a5,-20(s0)
   103f4:	fec42703          	lw	a4,-20(s0)
   103f8:	fdc42783          	lw	a5,-36(s0)
   103fc:	fef746e3          	blt	a4,a5,103e8 <delay+0x18>
   10400:	00000013          	nop
   10404:	02c12403          	lw	s0,44(sp)
   10408:	03010113          	addi	sp,sp,48
   1040c:	00008067          	ret
